; Function Attrs: mustprogress nounwind uwtable
define internal fastcc noundef zeroext i1 @_ZN5clang6format12_GLOBAL__N_116AnnotatingParser24tryToParseTableGenTokVarEv(ptr noundef nonnull align 8 dereferenceable(1524) %0) unnamed_addr #0 align 2 {
  %2 = getelementptr inbounds nuw i8, ptr %0, i64 480
  %3 = load ptr, ptr %2, align 8
  %.not = icmp eq ptr %3, null
  br i1 %.not, label %_ZN5clang6format12_GLOBAL__N_116AnnotatingParser20skipToNextNonCommentEv.exit, label %4

4:                                                ; preds = %1
  %5 = getelementptr inbounds nuw i8, ptr %3, i64 16
  %6 = load i16, ptr %5, align 8
  %7 = icmp eq i16 %6, 5
  br i1 %7, label %8, label %_ZN5clang6format12_GLOBAL__N_116AnnotatingParser20skipToNextNonCommentEv.exit

8:                                                ; preds = %4
  %9 = getelementptr inbounds nuw i8, ptr %3, i64 24
  %10 = load ptr, ptr %9, align 8
  %11 = load i8, ptr %10, align 1
  %12 = icmp eq i8 %11, 36
  br i1 %12, label %13, label %_ZN5clang6format12_GLOBAL__N_116AnnotatingParser20skipToNextNonCommentEv.exit

13:                                               ; preds = %8
  tail call fastcc void @_ZN5clang6format12_GLOBAL__N_116AnnotatingParser4nextEv(ptr noundef nonnull align 8 dereferenceable(1524) %0)
  %14 = load ptr, ptr %2, align 8
  %.not1.i = icmp eq ptr %14, null
  br i1 %.not1.i, label %_ZN5clang6format12_GLOBAL__N_116AnnotatingParser20skipToNextNonCommentEv.exit, label %.lr.ph.i

.lr.ph.i:                                         ; preds = %13, %19
  %15 = phi ptr [ %20, %19 ], [ %14, %13 ]
  %16 = getelementptr inbounds nuw i8, ptr %15, i64 16
  %17 = load i16, ptr %16, align 8
  %18 = icmp eq i16 %17, 4
  br i1 %18, label %19, label %_ZN5clang6format12_GLOBAL__N_116AnnotatingParser20skipToNextNonCommentEv.exit

19:                                               ; preds = %.lr.ph.i
  tail call fastcc void @_ZN5clang6format12_GLOBAL__N_116AnnotatingParser4nextEv(ptr noundef nonnull align 8 dereferenceable(1524) %0)
  %20 = load ptr, ptr %2, align 8
  %.not.i = icmp eq ptr %20, null
  br i1 %.not.i, label %_ZN5clang6format12_GLOBAL__N_116AnnotatingParser20skipToNextNonCommentEv.exit, label %.lr.ph.i, !llvm.loop !96

_ZN5clang6format12_GLOBAL__N_116AnnotatingParser20skipToNextNonCommentEv.exit: ; preds = %19, %.lr.ph.i, %13, %4, %8, %1
  %.0 = phi i1 [ false, %1 ], [ false, %8 ], [ false, %4 ], [ true, %13 ], [ true, %.lr.ph.i ], [ true, %19 ]
  ret i1 %.0
}